(lp0
(lp1
F0.0
aF0.0
aF0.0
aF0.0
aF0.0
aF0.0
aF0.0
aF0.0
aF0.0
aF0.0
aF0.0
aF0.0
aF0.0
aF0.0
aF0.0
aF0.0
aF0.0
aF0.0
aF0.0
aF0.0
aF0.0
aF0.0
aF0.0
aF0.0
aF0.0
aF0.0
aF0.0
aF0.0
aF0.0
aF0.0
aF0.0
aF0.0
aF0.0
aF0.0
aF0.0
aF0.0
aF0.0
aF0.0
aF0.0
aF0.0
aF0.0
aF0.0
aF0.0
aF0.0
aF0.0
aF0.0
aF0.0
aF0.0
aF0.0
aF0.0
aF0.0
aF0.0
aF0.0
aF0.0
aF0.0
aF0.0
aF0.0
aF0.0
aF0.0
aF0.0
aF0.0
aF0.0
aF0.0
aF0.0
aF0.0
aF0.0
aF0.0
aF0.0
aF0.0
aF0.0
aF0.0
aF0.0
aF0.0
aF0.0
aF0.0
aF0.0
aF0.0
aF0.0
aF0.0
aF0.0
aF0.0
aF0.0
aF0.0
aF0.0
aF0.0
aF0.0
aF0.0
aF0.0
aF0.0
aF0.0
aF0.0
aF0.0
aF0.0
aF0.0
aF0.0
aF0.0
aF0.0
aF0.0
aF0.0
aF0.0
aa(lp2
F0.63
aF0.588
aF0.624
aF0.646
aF0.598
aF0.638
aF0.606
aF0.628
aF0.65
aF0.622
aF0.63
aF0.614
aF0.628
aF0.608
aF0.658
aF0.582
aF0.678
aF0.574
aF0.628
aF0.614
aF0.588
aF0.634
aF0.604
aF0.62
aF0.598
aF0.626
aF0.594
aF0.616
aF0.634
aF0.604
aF0.628
aF0.62
aF0.588
aF0.638
aF0.604
aF0.622
aF0.646
aF0.6
aF0.654
aF0.606
aF0.612
aF0.594
aF0.604
aF0.644
aF0.632
aF0.606
aF0.624
aF0.612
aF0.624
aF0.616
aF0.636
aF0.644
aF0.628
aF0.644
aF0.616
aF0.656
aF0.614
aF0.62
aF0.622
aF0.608
aF0.62
aF0.628
aF0.618
aF0.632
aF0.616
aF0.604
aF0.63
aF0.606
aF0.622
aF0.588
aF0.642
aF0.594
aF0.648
aF0.61
aF0.658
aF0.614
aF0.628
aF0.608
aF0.612
aF0.62
aF0.63
aF0.604
aF0.624
aF0.584
aF0.598
aF0.632
aF0.6
aF0.63
aF0.594
aF0.628
aF0.624
aF0.622
aF0.612
aF0.606
aF0.634
aF0.628
aF0.586
aF0.63
aF0.602
aF0.614
aa(lp3
F0.644
aF0.662
aF0.606
aF0.63
aF0.584
aF0.672
aF0.616
aF0.614
aF0.618
aF0.606
aF0.646
aF0.608
aF0.646
aF0.596
aF0.632
aF0.612
aF0.622
aF0.602
aF0.612
aF0.64
aF0.592
aF0.658
aF0.624
aF0.588
aF0.628
aF0.614
aF0.668
aF0.588
aF0.636
aF0.618
aF0.6
aF0.642
aF0.62
aF0.616
aF0.606
aF0.628
aF0.614
aF0.62
aF0.62
aF0.61
aF0.632
aF0.62
aF0.612
aF0.632
aF0.604
aF0.622
aF0.64
aF0.618
aF0.634
aF0.598
aF0.634
aF0.612
aF0.618
aF0.638
aF0.622
aF0.624
aF0.646
aF0.644
aF0.592
aF0.66
aF0.564
aF0.648
aF0.624
aF0.606
aF0.612
aF0.626
aF0.644
aF0.612
aF0.666
aF0.62
aF0.636
aF0.616
aF0.614
aF0.632
aF0.638
aF0.622
aF0.638
aF0.644
aF0.608
aF0.624
aF0.634
aF0.604
aF0.64
aF0.608
aF0.632
aF0.596
aF0.6
aF0.64
aF0.612
aF0.66
aF0.628
aF0.62
aF0.604
aF0.632
aF0.618
aF0.63
aF0.638
aF0.63
aF0.604
aF0.608
aa(lp4
F0.65
aF0.614
aF0.626
aF0.656
aF0.602
aF0.652
aF0.606
aF0.638
aF0.604
aF0.656
aF0.614
aF0.624
aF0.622
aF0.63
aF0.65
aF0.628
aF0.586
aF0.654
aF0.576
aF0.63
aF0.654
aF0.586
aF0.658
aF0.646
aF0.614
aF0.61
aF0.654
aF0.588
aF0.656
aF0.614
aF0.65
aF0.606
aF0.628
aF0.614
aF0.63
aF0.596
aF0.628
aF0.642
aF0.608
aF0.628
aF0.606
aF0.636
aF0.628
aF0.636
aF0.614
aF0.638
aF0.634
aF0.632
aF0.636
aF0.6
aF0.672
aF0.566
aF0.666
aF0.602
aF0.64
aF0.638
aF0.618
aF0.588
aF0.61
aF0.626
aF0.618
aF0.636
aF0.622
aF0.628
aF0.608
aF0.62
aF0.604
aF0.618
aF0.626
aF0.624
aF0.634
aF0.644
aF0.58
aF0.636
aF0.622
aF0.602
aF0.65
aF0.616
aF0.616
aF0.606
aF0.626
aF0.604
aF0.64
aF0.628
aF0.606
aF0.62
aF0.608
aF0.648
aF0.594
aF0.642
aF0.636
aF0.628
aF0.62
aF0.634
aF0.63
aF0.614
aF0.612
aF0.62
aF0.628
aF0.636
aa(lp5
F0.63
aF0.64
aF0.638
aF0.59
aF0.65
aF0.632
aF0.61
aF0.654
aF0.616
aF0.632
aF0.632
aF0.63
aF0.622
aF0.656
aF0.596
aF0.63
aF0.582
aF0.654
aF0.59
aF0.644
aF0.596
aF0.61
aF0.626
aF0.636
aF0.6
aF0.614
aF0.654
aF0.592
aF0.616
aF0.654
aF0.614
aF0.658
aF0.62
aF0.636
aF0.644
aF0.59
aF0.65
aF0.6
aF0.674
aF0.586
aF0.648
aF0.61
aF0.634
aF0.608
aF0.68
aF0.566
aF0.666
aF0.578
aF0.652
aF0.604
aF0.64
aF0.614
aF0.612
aF0.63
aF0.616
aF0.646
aF0.616
aF0.666
aF0.588
aF0.642
aF0.612
aF0.638
aF0.614
aF0.64
aF0.606
aF0.664
aF0.6
aF0.634
aF0.594
aF0.628
aF0.628
aF0.636
aF0.614
aF0.638
aF0.616
aF0.626
aF0.632
aF0.638
aF0.644
aF0.634
aF0.602
aF0.66
aF0.638
aF0.612
aF0.62
aF0.656
aF0.592
aF0.648
aF0.62
aF0.636
aF0.628
aF0.626
aF0.61
aF0.646
aF0.612
aF0.642
aF0.624
aF0.614
aF0.642
aF0.618
aa(lp6
F0.642
aF0.612
aF0.674
aF0.614
aF0.614
aF0.62
aF0.642
aF0.6
aF0.64
aF0.628
aF0.61
aF0.64
aF0.626
aF0.622
aF0.66
aF0.592
aF0.662
aF0.614
aF0.64
aF0.62
aF0.634
aF0.636
aF0.608
aF0.646
aF0.608
aF0.628
aF0.596
aF0.636
aF0.616
aF0.624
aF0.632
aF0.604
aF0.644
aF0.628
aF0.618
aF0.676
aF0.61
aF0.632
aF0.618
aF0.63
aF0.614
aF0.674
aF0.604
aF0.632
aF0.622
aF0.612
aF0.606
aF0.638
aF0.614
aF0.628
aF0.63
aF0.636
aF0.646
aF0.612
aF0.628
aF0.62
aF0.658
aF0.598
aF0.61
aF0.636
aF0.616
aF0.646
aF0.598
aF0.654
aF0.614
aF0.616
aF0.654
aF0.634
aF0.604
aF0.618
aF0.634
aF0.62
aF0.626
aF0.618
aF0.632
aF0.62
aF0.6
aF0.628
aF0.654
aF0.586
aF0.656
aF0.598
aF0.636
aF0.642
aF0.61
aF0.646
aF0.586
aF0.63
aF0.62
aF0.644
aF0.638
aF0.61
aF0.638
aF0.588
aF0.662
aF0.572
aF0.654
aF0.606
aF0.638
aF0.65
aa(lp7
F0.602
aF0.628
aF0.614
aF0.642
aF0.62
aF0.648
aF0.606
aF0.636
aF0.616
aF0.648
aF0.598
aF0.652
aF0.606
aF0.644
aF0.616
aF0.626
aF0.64
aF0.614
aF0.628
aF0.658
aF0.616
aF0.626
aF0.602
aF0.624
aF0.584
aF0.626
aF0.622
aF0.61
aF0.6
aF0.632
aF0.616
aF0.628
aF0.628
aF0.628
aF0.636
aF0.616
aF0.634
aF0.612
aF0.652
aF0.616
aF0.612
aF0.636
aF0.662
aF0.596
aF0.642
aF0.606
aF0.652
aF0.604
aF0.648
aF0.622
aF0.634
aF0.644
aF0.606
aF0.646
aF0.612
aF0.66
aF0.59
aF0.656
aF0.62
aF0.66
aF0.626
aF0.594
aF0.65
aF0.646
aF0.638
aF0.6
aF0.644
aF0.608
aF0.614
aF0.654
aF0.578
aF0.656
aF0.628
aF0.626
aF0.634
aF0.604
aF0.638
aF0.61
aF0.614
aF0.614
aF0.664
aF0.58
aF0.644
aF0.638
aF0.63
aF0.624
aF0.662
aF0.638
aF0.626
aF0.622
aF0.644
aF0.6
aF0.638
aF0.618
aF0.664
aF0.608
aF0.622
aF0.618
aF0.626
aF0.63
aa(lp8
F0.608
aF0.602
aF0.668
aF0.576
aF0.632
aF0.602
aF0.628
aF0.634
aF0.618
aF0.642
aF0.6
aF0.654
aF0.6
aF0.662
aF0.602
aF0.632
aF0.626
aF0.624
aF0.608
aF0.654
aF0.612
aF0.628
aF0.606
aF0.638
aF0.61
aF0.64
aF0.628
aF0.602
aF0.622
aF0.632
aF0.632
aF0.6
aF0.638
aF0.634
aF0.604
aF0.636
aF0.606
aF0.638
aF0.602
aF0.646
aF0.566
aF0.668
aF0.596
aF0.65
aF0.55
aF0.67
aF0.578
aF0.67
aF0.606
aF0.64
aF0.656
aF0.594
aF0.628
aF0.632
aF0.614
aF0.598
aF0.65
aF0.572
aF0.654
aF0.616
aF0.638
aF0.632
aF0.636
aF0.616
aF0.63
aF0.626
aF0.62
aF0.642
aF0.616
aF0.626
aF0.622
aF0.644
aF0.6
aF0.642
aF0.616
aF0.636
aF0.624
aF0.628
aF0.616
aF0.648
aF0.614
aF0.646
aF0.61
aF0.632
aF0.604
aF0.636
aF0.634
aF0.616
aF0.628
aF0.598
aF0.642
aF0.604
aF0.648
aF0.616
aF0.648
aF0.63
aF0.602
aF0.648
aF0.624
aF0.654
aa(lp9
F0.68
aF0.584
aF0.672
aF0.594
aF0.652
aF0.632
aF0.644
aF0.57
aF0.638
aF0.614
aF0.62
aF0.602
aF0.69
aF0.594
aF0.636
aF0.604
aF0.648
aF0.63
aF0.634
aF0.604
aF0.622
aF0.61
aF0.654
aF0.598
aF0.664
aF0.572
aF0.648
aF0.602
aF0.66
aF0.604
aF0.636
aF0.584
aF0.624
aF0.65
aF0.618
aF0.634
aF0.616
aF0.62
aF0.652
aF0.584
aF0.646
aF0.598
aF0.644
aF0.612
aF0.66
aF0.59
aF0.66
aF0.604
aF0.626
aF0.634
aF0.588
aF0.652
aF0.588
aF0.664
aF0.606
aF0.652
aF0.598
aF0.616
aF0.618
aF0.632
aF0.622
aF0.608
aF0.64
aF0.646
aF0.612
aF0.626
aF0.612
aF0.648
aF0.614
aF0.606
aF0.632
aF0.614
aF0.636
aF0.59
aF0.636
aF0.63
aF0.63
aF0.6
aF0.646
aF0.612
aF0.652
aF0.616
aF0.658
aF0.618
aF0.642
aF0.618
aF0.602
aF0.64
aF0.636
aF0.622
aF0.642
aF0.63
aF0.62
aF0.656
aF0.584
aF0.66
aF0.612
aF0.628
aF0.628
aF0.594
aa(lp10
F0.64
aF0.63
aF0.632
aF0.614
aF0.622
aF0.632
aF0.614
aF0.606
aF0.658
aF0.652
aF0.59
aF0.624
aF0.65
aF0.59
aF0.64
aF0.622
aF0.624
aF0.598
aF0.652
aF0.612
aF0.65
aF0.614
aF0.654
aF0.61
aF0.642
aF0.624
aF0.634
aF0.628
aF0.622
aF0.62
aF0.62
aF0.628
aF0.644
aF0.624
aF0.632
aF0.648
aF0.594
aF0.666
aF0.612
aF0.66
aF0.648
aF0.622
aF0.628
aF0.654
aF0.59
aF0.622
aF0.616
aF0.594
aF0.618
aF0.622
aF0.636
aF0.642
aF0.626
aF0.634
aF0.584
aF0.682
aF0.588
aF0.614
aF0.622
aF0.656
aF0.614
aF0.634
aF0.654
aF0.622
aF0.602
aF0.608
aF0.62
aF0.632
aF0.636
aF0.614
aF0.61
aF0.632
aF0.606
aF0.618
aF0.6
aF0.64
aF0.662
aF0.582
aF0.638
aF0.596
aF0.632
aF0.658
aF0.602
aF0.596
aF0.65
aF0.584
aF0.664
aF0.606
aF0.62
aF0.61
aF0.624
aF0.62
aF0.616
aF0.632
aF0.632
aF0.626
aF0.636
aF0.616
aF0.642
aF0.64
aa(lp11
F0.608
aF0.646
aF0.628
aF0.636
aF0.626
aF0.58
aF0.642
aF0.62
aF0.624
aF0.626
aF0.61
aF0.616
aF0.628
aF0.61
aF0.634
aF0.62
aF0.618
aF0.598
aF0.628
aF0.618
aF0.604
aF0.606
aF0.664
aF0.616
aF0.612
aF0.626
aF0.618
aF0.618
aF0.616
aF0.622
aF0.65
aF0.594
aF0.668
aF0.63
aF0.616
aF0.61
aF0.652
aF0.6
aF0.702
aF0.566
aF0.658
aF0.58
aF0.652
aF0.602
aF0.662
aF0.602
aF0.606
aF0.642
aF0.59
aF0.634
aF0.634
aF0.616
aF0.598
aF0.62
aF0.596
aF0.674
aF0.606
aF0.638
aF0.608
aF0.656
aF0.596
aF0.638
aF0.596
aF0.644
aF0.596
aF0.616
aF0.628
aF0.614
aF0.632
aF0.652
aF0.588
aF0.68
aF0.58
aF0.66
aF0.62
aF0.652
aF0.62
aF0.62
aF0.608
aF0.642
aF0.62
aF0.638
aF0.648
aF0.588
aF0.65
aF0.582
aF0.652
aF0.562
aF0.66
aF0.614
aF0.63
aF0.626
aF0.646
aF0.618
aF0.644
aF0.618
aF0.598
aF0.632
aF0.626
aF0.644
aa(lp12
F0.644
aF0.628
aF0.608
aF0.622
aF0.608
aF0.626
aF0.678
aF0.61
aF0.64
aF0.63
aF0.63
aF0.65
aF0.61
aF0.632
aF0.618
aF0.624
aF0.614
aF0.622
aF0.624
aF0.62
aF0.594
aF0.64
aF0.584
aF0.668
aF0.592
aF0.634
aF0.644
aF0.61
aF0.634
aF0.618
aF0.636
aF0.602
aF0.652
aF0.58
aF0.648
aF0.626
aF0.644
aF0.626
aF0.628
aF0.604
aF0.66
aF0.61
aF0.654
aF0.574
aF0.656
aF0.588
aF0.636
aF0.608
aF0.616
aF0.64
aF0.626
aF0.636
aF0.598
aF0.654
aF0.588
aF0.646
aF0.612
aF0.644
aF0.604
aF0.618
aF0.638
aF0.608
aF0.632
aF0.622
aF0.616
aF0.624
aF0.644
aF0.6
aF0.602
aF0.614
aF0.634
aF0.592
aF0.616
aF0.614
aF0.63
aF0.642
aF0.622
aF0.646
aF0.584
aF0.646
aF0.626
aF0.664
aF0.622
aF0.604
aF0.608
aF0.632
aF0.618
aF0.624
aF0.628
aF0.63
aF0.63
aF0.598
aF0.644
aF0.608
aF0.644
aF0.614
aF0.628
aF0.63
aF0.61
aF0.612
aa(lp13
F0.632
aF0.62
aF0.59
aF0.652
aF0.618
aF0.624
aF0.596
aF0.628
aF0.644
aF0.604
aF0.618
aF0.59
aF0.626
aF0.614
aF0.628
aF0.632
aF0.61
aF0.632
aF0.63
aF0.608
aF0.632
aF0.65
aF0.64
aF0.622
aF0.608
aF0.628
aF0.628
aF0.622
aF0.652
aF0.59
aF0.666
aF0.606
aF0.66
aF0.604
aF0.656
aF0.628
aF0.606
aF0.638
aF0.622
aF0.662
aF0.604
aF0.624
aF0.618
aF0.622
aF0.622
aF0.652
aF0.606
aF0.644
aF0.604
aF0.66
aF0.614
aF0.61
aF0.618
aF0.65
aF0.614
aF0.648
aF0.586
aF0.636
aF0.636
aF0.592
aF0.628
aF0.628
aF0.618
aF0.632
aF0.626
aF0.608
aF0.632
aF0.624
aF0.608
aF0.636
aF0.602
aF0.64
aF0.58
aF0.632
aF0.59
aF0.62
aF0.626
aF0.622
aF0.624
aF0.604
aF0.632
aF0.6
aF0.62
aF0.594
aF0.622
aF0.646
aF0.636
aF0.61
aF0.636
aF0.624
aF0.598
aF0.642
aF0.606
aF0.634
aF0.6
aF0.654
aF0.614
aF0.606
aF0.66
aF0.604
aa(lp14
F0.63
aF0.594
aF0.666
aF0.61
aF0.648
aF0.63
aF0.634
aF0.59
aF0.602
aF0.658
aF0.61
aF0.632
aF0.634
aF0.6
aF0.658
aF0.616
aF0.648
aF0.594
aF0.652
aF0.632
aF0.654
aF0.608
aF0.622
aF0.634
aF0.608
aF0.616
aF0.612
aF0.648
aF0.592
aF0.658
aF0.62
aF0.65
aF0.602
aF0.644
aF0.596
aF0.686
aF0.61
aF0.616
aF0.616
aF0.648
aF0.59
aF0.664
aF0.58
aF0.634
aF0.618
aF0.608
aF0.674
aF0.61
aF0.634
aF0.604
aF0.648
aF0.604
aF0.652
aF0.618
aF0.63
aF0.634
aF0.65
aF0.624
aF0.606
aF0.646
aF0.61
aF0.632
aF0.644
aF0.618
aF0.658
aF0.61
aF0.644
aF0.632
aF0.62
aF0.62
aF0.632
aF0.618
aF0.642
aF0.636
aF0.596
aF0.634
aF0.594
aF0.638
aF0.604
aF0.63
aF0.612
aF0.63
aF0.618
aF0.626
aF0.636
aF0.638
aF0.63
aF0.634
aF0.63
aF0.65
aF0.618
aF0.622
aF0.63
aF0.596
aF0.642
aF0.614
aF0.63
aF0.616
aF0.65
aF0.604
aa(lp15
F0.608
aF0.61
aF0.624
aF0.62
aF0.59
aF0.654
aF0.638
aF0.642
aF0.648
aF0.6
aF0.644
aF0.572
aF0.672
aF0.58
aF0.644
aF0.63
aF0.608
aF0.636
aF0.638
aF0.602
aF0.626
aF0.63
aF0.656
aF0.58
aF0.638
aF0.582
aF0.666
aF0.584
aF0.658
aF0.618
aF0.656
aF0.604
aF0.656
aF0.582
aF0.666
aF0.596
aF0.646
aF0.622
aF0.61
aF0.632
aF0.63
aF0.63
aF0.618
aF0.644
aF0.608
aF0.636
aF0.594
aF0.656
aF0.59
aF0.66
aF0.624
aF0.626
aF0.634
aF0.61
aF0.636
aF0.628
aF0.586
aF0.646
aF0.584
aF0.642
aF0.636
aF0.594
aF0.614
aF0.614
aF0.634
aF0.654
aF0.616
aF0.598
aF0.628
aF0.626
aF0.61
aF0.644
aF0.604
aF0.62
aF0.65
aF0.642
aF0.622
aF0.672
aF0.646
aF0.622
aF0.618
aF0.622
aF0.636
aF0.616
aF0.62
aF0.628
aF0.652
aF0.614
aF0.618
aF0.634
aF0.622
aF0.602
aF0.642
aF0.586
aF0.634
aF0.638
aF0.61
aF0.624
aF0.62
aF0.602
aa(lp16
F0.648
aF0.59
aF0.638
aF0.63
aF0.626
aF0.626
aF0.658
aF0.604
aF0.638
aF0.622
aF0.606
aF0.64
aF0.592
aF0.652
aF0.622
aF0.66
aF0.596
aF0.646
aF0.574
aF0.656
aF0.598
aF0.632
aF0.62
aF0.632
aF0.632
aF0.624
aF0.656
aF0.612
aF0.648
aF0.626
aF0.64
aF0.624
aF0.602
aF0.644
aF0.618
aF0.628
aF0.656
aF0.586
aF0.642
aF0.632
aF0.634
aF0.648
aF0.618
aF0.624
aF0.618
aF0.618
aF0.646
aF0.626
aF0.604
aF0.636
aF0.646
aF0.622
aF0.602
aF0.634
aF0.644
aF0.622
aF0.632
aF0.594
aF0.63
aF0.632
aF0.594
aF0.628
aF0.604
aF0.62
aF0.634
aF0.64
aF0.598
aF0.642
aF0.6
aF0.608
aF0.604
aF0.64
aF0.614
aF0.638
aF0.618
aF0.652
aF0.618
aF0.644
aF0.574
aF0.646
aF0.586
aF0.618
aF0.626
aF0.614
aF0.634
aF0.648
aF0.604
aF0.636
aF0.64
aF0.63
aF0.63
aF0.638
aF0.576
aF0.654
aF0.608
aF0.61
aF0.644
aF0.614
aF0.626
aF0.598
aa(lp17
F0.628
aF0.572
aF0.664
aF0.62
aF0.666
aF0.584
aF0.656
aF0.626
aF0.618
aF0.628
aF0.614
aF0.65
aF0.6
aF0.618
aF0.63
aF0.622
aF0.584
aF0.66
aF0.61
aF0.618
aF0.61
aF0.642
aF0.624
aF0.612
aF0.63
aF0.598
aF0.654
aF0.648
aF0.596
aF0.636
aF0.602
aF0.606
aF0.634
aF0.606
aF0.644
aF0.6
aF0.626
aF0.626
aF0.622
aF0.62
aF0.622
aF0.628
aF0.628
aF0.634
aF0.632
aF0.63
aF0.648
aF0.612
aF0.62
aF0.64
aF0.636
aF0.6
aF0.644
aF0.624
aF0.644
aF0.588
aF0.658
aF0.642
aF0.586
aF0.64
aF0.616
aF0.628
aF0.6
aF0.678
aF0.6
aF0.676
aF0.61
aF0.664
aF0.61
aF0.63
aF0.596
aF0.656
aF0.618
aF0.636
aF0.63
aF0.632
aF0.61
aF0.66
aF0.602
aF0.638
aF0.592
aF0.656
aF0.632
aF0.64
aF0.618
aF0.63
aF0.65
aF0.586
aF0.672
aF0.58
aF0.63
aF0.618
aF0.606
aF0.658
aF0.624
aF0.622
aF0.63
aF0.618
aF0.67
aF0.636
aa(lp18
F0.612
aF0.638
aF0.64
aF0.606
aF0.622
aF0.642
aF0.632
aF0.606
aF0.616
aF0.654
aF0.636
aF0.612
aF0.606
aF0.63
aF0.612
aF0.648
aF0.632
aF0.628
aF0.618
aF0.636
aF0.654
aF0.576
aF0.634
aF0.64
aF0.634
aF0.644
aF0.604
aF0.62
aF0.658
aF0.578
aF0.646
aF0.608
aF0.638
aF0.606
aF0.65
aF0.622
aF0.664
aF0.638
aF0.606
aF0.644
aF0.61
aF0.61
aF0.596
aF0.666
aF0.578
aF0.65
aF0.632
aF0.646
aF0.622
aF0.654
aF0.592
aF0.646
aF0.614
aF0.654
aF0.64
aF0.636
aF0.612
aF0.632
aF0.616
aF0.646
aF0.596
aF0.644
aF0.608
aF0.648
aF0.602
aF0.636
aF0.632
aF0.642
aF0.616
aF0.626
aF0.628
aF0.63
aF0.618
aF0.658
aF0.628
aF0.668
aF0.564
aF0.65
aF0.632
aF0.616
aF0.662
aF0.62
aF0.674
aF0.592
aF0.648
aF0.598
aF0.638
aF0.628
aF0.614
aF0.628
aF0.668
aF0.6
aF0.666
aF0.598
aF0.652
aF0.598
aF0.618
aF0.604
aF0.638
aF0.598
aa(lp19
F0.612
aF0.638
aF0.628
aF0.616
aF0.672
aF0.6
aF0.66
aF0.596
aF0.654
aF0.574
aF0.654
aF0.592
aF0.646
aF0.606
aF0.676
aF0.568
aF0.678
aF0.576
aF0.666
aF0.632
aF0.632
aF0.654
aF0.606
aF0.634
aF0.604
aF0.642
aF0.578
aF0.652
aF0.64
aF0.62
aF0.64
aF0.602
aF0.626
aF0.618
aF0.63
aF0.602
aF0.644
aF0.612
aF0.626
aF0.652
aF0.6
aF0.658
aF0.6
aF0.652
aF0.624
aF0.614
aF0.618
aF0.632
aF0.63
aF0.644
aF0.614
aF0.67
aF0.598
aF0.648
aF0.624
aF0.642
aF0.63
aF0.616
aF0.64
aF0.608
aF0.6
aF0.67
aF0.606
aF0.662
aF0.588
aF0.646
aF0.608
aF0.628
aF0.612
aF0.63
aF0.638
aF0.584
aF0.654
aF0.648
aF0.616
aF0.63
aF0.582
aF0.628
aF0.648
aF0.584
aF0.646
aF0.624
aF0.648
aF0.63
aF0.612
aF0.626
aF0.622
aF0.64
aF0.636
aF0.616
aF0.622
aF0.64
aF0.626
aF0.618
aF0.646
aF0.628
aF0.638
aF0.626
aF0.634
aF0.638
aa(lp20
F0.616
aF0.654
aF0.586
aF0.624
aF0.622
aF0.62
aF0.62
aF0.602
aF0.654
aF0.628
aF0.628
aF0.624
aF0.642
aF0.634
aF0.616
aF0.634
aF0.608
aF0.628
aF0.656
aF0.596
aF0.65
aF0.64
aF0.586
aF0.64
aF0.598
aF0.638
aF0.604
aF0.634
aF0.612
aF0.606
aF0.66
aF0.628
aF0.604
aF0.654
aF0.578
aF0.66
aF0.642
aF0.608
aF0.652
aF0.594
aF0.65
aF0.594
aF0.638
aF0.626
aF0.646
aF0.596
aF0.612
aF0.634
aF0.622
aF0.634
aF0.616
aF0.61
aF0.646
aF0.618
aF0.66
aF0.598
aF0.65
aF0.636
aF0.598
aF0.626
aF0.626
aF0.614
aF0.624
aF0.636
aF0.634
aF0.614
aF0.64
aF0.608
aF0.626
aF0.648
aF0.59
aF0.668
aF0.588
aF0.654
aF0.656
aF0.588
aF0.64
aF0.638
aF0.624
aF0.666
aF0.612
aF0.616
aF0.636
aF0.6
aF0.646
aF0.62
aF0.606
aF0.62
aF0.62
aF0.634
aF0.592
aF0.614
aF0.642
aF0.638
aF0.616
aF0.614
aF0.616
aF0.63
aF0.584
aF0.646
aa(lp21
F0.654
aF0.618
aF0.65
aF0.634
aF0.632
aF0.606
aF0.642
aF0.636
aF0.636
aF0.626
aF0.614
aF0.626
aF0.61
aF0.638
aF0.596
aF0.626
aF0.646
aF0.632
aF0.612
aF0.618
aF0.618
aF0.628
aF0.626
aF0.616
aF0.59
aF0.658
aF0.602
aF0.64
aF0.622
aF0.61
aF0.628
aF0.586
aF0.664
aF0.612
aF0.666
aF0.616
aF0.658
aF0.608
aF0.652
aF0.618
aF0.624
aF0.63
aF0.618
aF0.622
aF0.644
aF0.638
aF0.604
aF0.644
aF0.622
aF0.616
aF0.628
aF0.652
aF0.598
aF0.632
aF0.626
aF0.644
aF0.604
aF0.656
aF0.63
aF0.634
aF0.656
aF0.642
aF0.614
aF0.614
aF0.656
aF0.626
aF0.618
aF0.654
aF0.6
aF0.624
aF0.632
aF0.628
aF0.61
aF0.63
aF0.632
aF0.614
aF0.644
aF0.582
aF0.648
aF0.604
aF0.632
aF0.63
aF0.626
aF0.614
aF0.642
aF0.63
aF0.62
aF0.568
aF0.634
aF0.64
aF0.636
aF0.672
aF0.594
aF0.656
aF0.594
aF0.622
aF0.61
aF0.666
aF0.622
aF0.596
aa(lp22
F0.66
aF0.602
aF0.64
aF0.602
aF0.658
aF0.596
aF0.628
aF0.62
aF0.672
aF0.63
aF0.642
aF0.59
aF0.638
aF0.568
aF0.66
aF0.606
aF0.652
aF0.586
aF0.63
aF0.642
aF0.62
aF0.644
aF0.616
aF0.634
aF0.624
aF0.666
aF0.586
aF0.652
aF0.624
aF0.652
aF0.592
aF0.63
aF0.618
aF0.618
aF0.602
aF0.634
aF0.618
aF0.604
aF0.59
aF0.642
aF0.636
aF0.64
aF0.622
aF0.632
aF0.648
aF0.604
aF0.654
aF0.638
aF0.588
aF0.662
aF0.63
aF0.656
aF0.6
aF0.63
aF0.622
aF0.642
aF0.636
aF0.616
aF0.646
aF0.63
aF0.632
aF0.66
aF0.606
aF0.642
aF0.602
aF0.626
aF0.622
aF0.628
aF0.612
aF0.638
aF0.632
aF0.644
aF0.592
aF0.65
aF0.62
aF0.642
aF0.604
aF0.604
aF0.604
aF0.62
aF0.628
aF0.614
aF0.642
aF0.61
aF0.616
aF0.652
aF0.588
aF0.632
aF0.596
aF0.628
aF0.622
aF0.63
aF0.616
aF0.614
aF0.628
aF0.62
aF0.638
aF0.586
aF0.628
aF0.622
aa(lp23
F0.6
aF0.664
aF0.61
aF0.616
aF0.644
aF0.612
aF0.652
aF0.596
aF0.654
aF0.61
aF0.636
aF0.618
aF0.646
aF0.616
aF0.642
aF0.648
aF0.61
aF0.616
aF0.642
aF0.622
aF0.672
aF0.58
aF0.632
aF0.642
aF0.618
aF0.618
aF0.616
aF0.62
aF0.63
aF0.614
aF0.618
aF0.612
aF0.604
aF0.63
aF0.64
aF0.624
aF0.606
aF0.65
aF0.614
aF0.63
aF0.582
aF0.676
aF0.586
aF0.668
aF0.586
aF0.614
aF0.628
aF0.626
aF0.61
aF0.64
aF0.596
aF0.648
aF0.608
aF0.636
aF0.622
aF0.648
aF0.62
aF0.58
aF0.664
aF0.644
aF0.6
aF0.634
aF0.608
aF0.626
aF0.66
aF0.578
aF0.632
aF0.646
aF0.61
aF0.652
aF0.632
aF0.602
aF0.656
aF0.646
aF0.62
aF0.628
aF0.64
aF0.624
aF0.66
aF0.596
aF0.66
aF0.586
aF0.654
aF0.606
aF0.65
aF0.626
aF0.64
aF0.638
aF0.616
aF0.62
aF0.636
aF0.602
aF0.656
aF0.562
aF0.644
aF0.616
aF0.608
aF0.64
aF0.588
aF0.626
aa(lp24
F0.614
aF0.624
aF0.628
aF0.638
aF0.614
aF0.612
aF0.646
aF0.594
aF0.668
aF0.596
aF0.648
aF0.622
aF0.61
aF0.64
aF0.626
aF0.594
aF0.654
aF0.578
aF0.668
aF0.602
aF0.65
aF0.608
aF0.622
aF0.602
aF0.66
aF0.602
aF0.642
aF0.636
aF0.578
aF0.628
aF0.628
aF0.648
aF0.62
aF0.634
aF0.624
aF0.624
aF0.622
aF0.628
aF0.616
aF0.634
aF0.634
aF0.612
aF0.64
aF0.584
aF0.652
aF0.598
aF0.634
aF0.62
aF0.646
aF0.614
aF0.628
aF0.612
aF0.64
aF0.63
aF0.642
aF0.614
aF0.66
aF0.64
aF0.632
aF0.634
aF0.624
aF0.606
aF0.664
aF0.602
aF0.644
aF0.618
aF0.646
aF0.604
aF0.646
aF0.606
aF0.614
aF0.628
aF0.64
aF0.612
aF0.62
aF0.652
aF0.648
aF0.588
aF0.672
aF0.618
aF0.644
aF0.572
aF0.644
aF0.61
aF0.626
aF0.642
aF0.596
aF0.63
aF0.628
aF0.604
aF0.646
aF0.588
aF0.646
aF0.616
aF0.634
aF0.652
aF0.594
aF0.614
aF0.644
aF0.612
aa(lp25
F0.626
aF0.6
aF0.626
aF0.598
aF0.646
aF0.614
aF0.646
aF0.6
aF0.636
aF0.632
aF0.646
aF0.64
aF0.63
aF0.624
aF0.618
aF0.628
aF0.594
aF0.636
aF0.636
aF0.644
aF0.632
aF0.602
aF0.652
aF0.602
aF0.616
aF0.646
aF0.61
aF0.6
aF0.622
aF0.616
aF0.63
aF0.652
aF0.618
aF0.628
aF0.632
aF0.604
aF0.622
aF0.632
aF0.628
aF0.62
aF0.648
aF0.564
aF0.678
aF0.572
aF0.668
aF0.558
aF0.694
aF0.574
aF0.67
aF0.6
aF0.656
aF0.594
aF0.644
aF0.638
aF0.638
aF0.616
aF0.636
aF0.648
aF0.606
aF0.656
aF0.62
aF0.588
aF0.654
aF0.598
aF0.652
aF0.608
aF0.612
aF0.638
aF0.646
aF0.626
aF0.624
aF0.668
aF0.606
aF0.628
aF0.632
aF0.596
aF0.628
aF0.604
aF0.636
aF0.634
aF0.596
aF0.612
aF0.642
aF0.638
aF0.6
aF0.658
aF0.608
aF0.64
aF0.598
aF0.63
aF0.628
aF0.632
aF0.614
aF0.658
aF0.61
aF0.644
aF0.618
aF0.624
aF0.61
aF0.652
aa(lp26
F0.644
aF0.612
aF0.652
aF0.582
aF0.648
aF0.636
aF0.628
aF0.63
aF0.622
aF0.61
aF0.598
aF0.642
aF0.632
aF0.638
aF0.598
aF0.662
aF0.596
aF0.652
aF0.624
aF0.618
aF0.636
aF0.614
aF0.642
aF0.616
aF0.664
aF0.598
aF0.624
aF0.65
aF0.606
aF0.654
aF0.592
aF0.652
aF0.648
aF0.612
aF0.628
aF0.644
aF0.582
aF0.672
aF0.58
aF0.652
aF0.612
aF0.646
aF0.586
aF0.674
aF0.58
aF0.634
aF0.64
aF0.618
aF0.624
aF0.592
aF0.628
aF0.618
aF0.648
aF0.606
aF0.622
aF0.612
aF0.616
aF0.624
aF0.634
aF0.622
aF0.606
aF0.614
aF0.61
aF0.64
aF0.646
aF0.658
aF0.6
aF0.632
aF0.622
aF0.606
aF0.644
aF0.624
aF0.644
aF0.622
aF0.61
aF0.626
aF0.648
aF0.62
aF0.648
aF0.606
aF0.634
aF0.618
aF0.622
aF0.624
aF0.664
aF0.614
aF0.642
aF0.586
aF0.65
aF0.618
aF0.652
aF0.584
aF0.686
aF0.604
aF0.646
aF0.604
aF0.624
aF0.618
aF0.628
aF0.638
aa(lp27
F0.632
aF0.646
aF0.608
aF0.652
aF0.622
aF0.584
aF0.634
aF0.618
aF0.642
aF0.606
aF0.62
aF0.63
aF0.628
aF0.638
aF0.63
aF0.602
aF0.61
aF0.594
aF0.634
aF0.608
aF0.642
aF0.644
aF0.602
aF0.664
aF0.6
aF0.632
aF0.616
aF0.63
aF0.612
aF0.596
aF0.644
aF0.632
aF0.588
aF0.598
aF0.628
aF0.604
aF0.688
aF0.602
aF0.64
aF0.61
aF0.63
aF0.598
aF0.632
aF0.614
aF0.612
aF0.682
aF0.612
aF0.604
aF0.642
aF0.624
aF0.634
aF0.622
aF0.64
aF0.616
aF0.638
aF0.572
aF0.666
aF0.604
aF0.628
aF0.622
aF0.654
aF0.642
aF0.594
aF0.648
aF0.612
aF0.636
aF0.596
aF0.588
aF0.672
aF0.59
aF0.664
aF0.628
aF0.606
aF0.652
aF0.6
aF0.652
aF0.612
aF0.642
aF0.618
aF0.632
aF0.604
aF0.626
aF0.654
aF0.612
aF0.646
aF0.62
aF0.648
aF0.61
aF0.64
aF0.614
aF0.64
aF0.616
aF0.64
aF0.596
aF0.614
aF0.654
aF0.608
aF0.662
aF0.608
aF0.62
aa(lp28
F0.604
aF0.664
aF0.58
aF0.674
aF0.564
aF0.644
aF0.58
aF0.634
aF0.632
aF0.634
aF0.624
aF0.594
aF0.638
aF0.608
aF0.636
aF0.62
aF0.642
aF0.604
aF0.65
aF0.586
aF0.64
aF0.634
aF0.634
aF0.604
aF0.6
aF0.638
aF0.636
aF0.644
aF0.638
aF0.61
aF0.644
aF0.64
aF0.618
aF0.632
aF0.632
aF0.64
aF0.58
aF0.65
aF0.608
aF0.638
aF0.57
aF0.638
aF0.6
aF0.682
aF0.568
aF0.636
aF0.618
aF0.638
aF0.614
aF0.634
aF0.618
aF0.62
aF0.652
aF0.622
aF0.638
aF0.606
aF0.638
aF0.594
aF0.646
aF0.606
aF0.644
aF0.61
aF0.616
aF0.638
aF0.618
aF0.648
aF0.596
aF0.64
aF0.59
aF0.612
aF0.608
aF0.63
aF0.634
aF0.64
aF0.614
aF0.638
aF0.614
aF0.616
aF0.658
aF0.612
aF0.634
aF0.62
aF0.624
aF0.638
aF0.6
aF0.644
aF0.632
aF0.628
aF0.636
aF0.622
aF0.628
aF0.642
aF0.626
aF0.608
aF0.65
aF0.586
aF0.62
aF0.652
aF0.576
aF0.65
aa(lp29
F0.644
aF0.614
aF0.614
aF0.628
aF0.634
aF0.648
aF0.62
aF0.598
aF0.666
aF0.608
aF0.634
aF0.62
aF0.614
aF0.606
aF0.604
aF0.632
aF0.616
aF0.63
aF0.604
aF0.608
aF0.626
aF0.626
aF0.638
aF0.624
aF0.654
aF0.614
aF0.62
aF0.61
aF0.634
aF0.596
aF0.652
aF0.63
aF0.634
aF0.574
aF0.664
aF0.632
aF0.648
aF0.634
aF0.618
aF0.64
aF0.614
aF0.64
aF0.638
aF0.606
aF0.62
aF0.63
aF0.624
aF0.652
aF0.594
aF0.654
aF0.608
aF0.622
aF0.626
aF0.616
aF0.608
aF0.656
aF0.624
aF0.638
aF0.614
aF0.624
aF0.66
aF0.616
aF0.628
aF0.592
aF0.646
aF0.592
aF0.642
aF0.626
aF0.638
aF0.63
aF0.622
aF0.65
aF0.618
aF0.65
aF0.606
aF0.638
aF0.604
aF0.63
aF0.572
aF0.664
aF0.62
aF0.598
aF0.624
aF0.622
aF0.648
aF0.608
aF0.622
aF0.604
aF0.638
aF0.622
aF0.618
aF0.618
aF0.652
aF0.618
aF0.61
aF0.608
aF0.644
aF0.6
aF0.638
aF0.59
aa(lp30
F0.636
aF0.578
aF0.632
aF0.604
aF0.674
aF0.62
aF0.644
aF0.624
aF0.636
aF0.634
aF0.624
aF0.66
aF0.61
aF0.616
aF0.622
aF0.63
aF0.63
aF0.65
aF0.608
aF0.606
aF0.64
aF0.594
aF0.632
aF0.63
aF0.596
aF0.636
aF0.606
aF0.628
aF0.622
aF0.626
aF0.62
aF0.598
aF0.644
aF0.594
aF0.634
aF0.6
aF0.614
aF0.644
aF0.59
aF0.624
aF0.632
aF0.608
aF0.636
aF0.63
aF0.608
aF0.654
aF0.626
aF0.616
aF0.628
aF0.64
aF0.582
aF0.656
aF0.594
aF0.65
aF0.606
aF0.632
aF0.612
aF0.628
aF0.634
aF0.632
aF0.632
aF0.602
aF0.616
aF0.654
aF0.632
aF0.618
aF0.582
aF0.642
aF0.618
aF0.646
aF0.636
aF0.588
aF0.666
aF0.576
aF0.684
aF0.604
aF0.636
aF0.6
aF0.628
aF0.636
aF0.618
aF0.654
aF0.624
aF0.64
aF0.604
aF0.616
aF0.634
aF0.616
aF0.606
aF0.604
aF0.66
aF0.606
aF0.646
aF0.626
aF0.626
aF0.602
aF0.654
aF0.61
aF0.638
aF0.594
aa(lp31
F0.652
aF0.612
aF0.61
aF0.628
aF0.612
aF0.634
aF0.608
aF0.632
aF0.606
aF0.61
aF0.66
aF0.58
aF0.668
aF0.576
aF0.648
aF0.6
aF0.606
aF0.664
aF0.6
aF0.662
aF0.586
aF0.62
aF0.638
aF0.626
aF0.636
aF0.6
aF0.664
aF0.574
aF0.672
aF0.592
aF0.638
aF0.62
aF0.664
aF0.576
aF0.652
aF0.604
aF0.666
aF0.61
aF0.618
aF0.642
aF0.61
aF0.628
aF0.59
aF0.634
aF0.62
aF0.604
aF0.642
aF0.592
aF0.65
aF0.636
aF0.6
aF0.632
aF0.618
aF0.638
aF0.592
aF0.616
aF0.62
aF0.648
aF0.648
aF0.612
aF0.648
aF0.59
aF0.64
aF0.602
aF0.662
aF0.616
aF0.63
aF0.59
aF0.638
aF0.63
aF0.612
aF0.624
aF0.598
aF0.64
aF0.616
aF0.654
aF0.596
aF0.66
aF0.598
aF0.638
aF0.634
aF0.604
aF0.652
aF0.596
aF0.656
aF0.616
aF0.63
aF0.628
aF0.634
aF0.598
aF0.634
aF0.64
aF0.608
aF0.642
aF0.602
aF0.636
aF0.582
aF0.632
aF0.588
aF0.65
aa(lp32
F0.626
aF0.618
aF0.628
aF0.628
aF0.648
aF0.612
aF0.624
aF0.628
aF0.638
aF0.618
aF0.628
aF0.626
aF0.618
aF0.626
aF0.618
aF0.604
aF0.656
aF0.608
aF0.636
aF0.634
aF0.574
aF0.644
aF0.624
aF0.624
aF0.614
aF0.646
aF0.624
aF0.638
aF0.608
aF0.632
aF0.632
aF0.626
aF0.616
aF0.648
aF0.612
aF0.634
aF0.636
aF0.636
aF0.644
aF0.602
aF0.614
aF0.616
aF0.646
aF0.608
aF0.648
aF0.604
aF0.64
aF0.644
aF0.642
aF0.64
aF0.6
aF0.64
aF0.638
aF0.626
aF0.614
aF0.65
aF0.636
aF0.656
aF0.57
aF0.668
aF0.642
aF0.614
aF0.598
aF0.656
aF0.628
aF0.616
aF0.628
aF0.618
aF0.634
aF0.616
aF0.624
aF0.64
aF0.636
aF0.612
aF0.608
aF0.632
aF0.63
aF0.65
aF0.658
aF0.614
aF0.63
aF0.634
aF0.594
aF0.674
aF0.594
aF0.656
aF0.602
aF0.668
aF0.622
aF0.614
aF0.64
aF0.648
aF0.624
aF0.608
aF0.646
aF0.594
aF0.66
aF0.614
aF0.65
aF0.626
aa(lp33
F0.688
aF0.592
aF0.68
aF0.592
aF0.652
aF0.586
aF0.666
aF0.578
aF0.64
aF0.602
aF0.626
aF0.64
aF0.646
aF0.624
aF0.624
aF0.638
aF0.588
aF0.636
aF0.59
aF0.654
aF0.618
aF0.62
aF0.654
aF0.59
aF0.654
aF0.606
aF0.648
aF0.606
aF0.65
aF0.576
aF0.658
aF0.618
aF0.65
aF0.618
aF0.618
aF0.62
aF0.638
aF0.61
aF0.634
aF0.628
aF0.622
aF0.612
aF0.656
aF0.596
aF0.664
aF0.582
aF0.646
aF0.638
aF0.616
aF0.62
aF0.63
aF0.63
aF0.626
aF0.616
aF0.638
aF0.626
aF0.626
aF0.626
aF0.632
aF0.616
aF0.628
aF0.622
aF0.632
aF0.63
aF0.608
aF0.64
aF0.63
aF0.648
aF0.6
aF0.636
aF0.628
aF0.6
aF0.622
aF0.642
aF0.614
aF0.616
aF0.62
aF0.63
aF0.618
aF0.62
aF0.656
aF0.628
aF0.614
aF0.62
aF0.666
aF0.574
aF0.636
aF0.572
aF0.67
aF0.598
aF0.604
aF0.602
aF0.652
aF0.642
aF0.618
aF0.626
aF0.64
aF0.622
aF0.632
aF0.656
aa(lp34
F0.63
aF0.628
aF0.634
aF0.638
aF0.586
aF0.654
aF0.626
aF0.62
aF0.634
aF0.598
aF0.64
aF0.632
aF0.65
aF0.61
aF0.656
aF0.596
aF0.608
aF0.638
aF0.598
aF0.636
aF0.618
aF0.64
aF0.584
aF0.66
aF0.63
aF0.632
aF0.592
aF0.626
aF0.636
aF0.612
aF0.652
aF0.61
aF0.632
aF0.612
aF0.622
aF0.662
aF0.608
aF0.636
aF0.646
aF0.592
aF0.62
aF0.642
aF0.6
aF0.644
aF0.608
aF0.616
aF0.64
aF0.592
aF0.658
aF0.596
aF0.64
aF0.622
aF0.634
aF0.628
aF0.612
aF0.634
aF0.64
aF0.604
aF0.652
aF0.592
aF0.654
aF0.58
aF0.648
aF0.592
aF0.658
aF0.598
aF0.648
aF0.61
aF0.64
aF0.61
aF0.634
aF0.652
aF0.616
aF0.634
aF0.636
aF0.596
aF0.632
aF0.596
aF0.636
aF0.618
aF0.648
aF0.604
aF0.61
aF0.636
aF0.618
aF0.638
aF0.614
aF0.636
aF0.614
aF0.664
aF0.598
aF0.652
aF0.598
aF0.68
aF0.614
aF0.618
aF0.626
aF0.646
aF0.562
aF0.67
aa(lp35
F0.598
aF0.648
aF0.59
aF0.648
aF0.626
aF0.64
aF0.61
aF0.64
aF0.638
aF0.632
aF0.602
aF0.624
aF0.662
aF0.572
aF0.708
aF0.556
aF0.664
aF0.582
aF0.682
aF0.568
aF0.696
aF0.586
aF0.642
aF0.63
aF0.606
aF0.652
aF0.616
aF0.618
aF0.632
aF0.612
aF0.642
aF0.616
aF0.65
aF0.63
aF0.64
aF0.586
aF0.66
aF0.584
aF0.668
aF0.582
aF0.646
aF0.584
aF0.678
aF0.628
aF0.604
aF0.628
aF0.618
aF0.608
aF0.654
aF0.608
aF0.68
aF0.596
aF0.64
aF0.606
aF0.642
aF0.594
aF0.618
aF0.618
aF0.634
aF0.612
aF0.676
aF0.582
aF0.646
aF0.616
aF0.628
aF0.6
aF0.65
aF0.606
aF0.656
aF0.634
aF0.606
aF0.646
aF0.604
aF0.638
aF0.628
aF0.628
aF0.63
aF0.614
aF0.634
aF0.594
aF0.62
aF0.602
aF0.64
aF0.596
aF0.67
aF0.608
aF0.63
aF0.636
aF0.6
aF0.646
aF0.618
aF0.634
aF0.65
aF0.6
aF0.63
aF0.632
aF0.626
aF0.622
aF0.638
aF0.598
aa(lp36
F0.632
aF0.628
aF0.616
aF0.634
aF0.624
aF0.618
aF0.63
aF0.634
aF0.624
aF0.648
aF0.606
aF0.616
aF0.63
aF0.614
aF0.618
aF0.612
aF0.638
aF0.622
aF0.626
aF0.646
aF0.612
aF0.632
aF0.626
aF0.638
aF0.638
aF0.626
aF0.6
aF0.628
aF0.618
aF0.64
aF0.648
aF0.612
aF0.61
aF0.624
aF0.644
aF0.6
aF0.66
aF0.606
aF0.658
aF0.608
aF0.654
aF0.614
aF0.63
aF0.63
aF0.594
aF0.654
aF0.61
aF0.646
aF0.614
aF0.62
aF0.636
aF0.63
aF0.63
aF0.628
aF0.61
aF0.602
aF0.65
aF0.574
aF0.646
aF0.614
aF0.63
aF0.634
aF0.628
aF0.65
aF0.648
aF0.606
aF0.59
aF0.634
aF0.634
aF0.604
aF0.66
aF0.598
aF0.652
aF0.612
aF0.632
aF0.616
aF0.614
aF0.63
aF0.64
aF0.584
aF0.66
aF0.614
aF0.646
aF0.608
aF0.668
aF0.592
aF0.644
aF0.584
aF0.66
aF0.614
aF0.634
aF0.598
aF0.648
aF0.628
aF0.632
aF0.644
aF0.634
aF0.588
aF0.662
aF0.592
aa(lp37
F0.614
aF0.632
aF0.62
aF0.61
aF0.652
aF0.618
aF0.622
aF0.598
aF0.634
aF0.606
aF0.644
aF0.648
aF0.62
aF0.652
aF0.612
aF0.648
aF0.584
aF0.664
aF0.606
aF0.656
aF0.596
aF0.634
aF0.61
aF0.644
aF0.608
aF0.646
aF0.618
aF0.624
aF0.638
aF0.624
aF0.628
aF0.62
aF0.636
aF0.59
aF0.642
aF0.606
aF0.634
aF0.66
aF0.628
aF0.62
aF0.624
aF0.622
aF0.614
aF0.662
aF0.628
aF0.618
aF0.648
aF0.618
aF0.604
aF0.622
aF0.646
aF0.614
aF0.652
aF0.594
aF0.632
aF0.632
aF0.602
aF0.652
aF0.616
aF0.628
aF0.608
aF0.636
aF0.622
aF0.646
aF0.628
aF0.62
aF0.634
aF0.598
aF0.606
aF0.674
aF0.614
aF0.632
aF0.626
aF0.618
aF0.598
aF0.654
aF0.594
aF0.638
aF0.642
aF0.612
aF0.644
aF0.616
aF0.652
aF0.6
aF0.642
aF0.644
aF0.586
aF0.622
aF0.648
aF0.64
aF0.604
aF0.628
aF0.652
aF0.606
aF0.678
aF0.604
aF0.634
aF0.602
aF0.64
aF0.614
aa(lp38
F0.64
aF0.626
aF0.616
aF0.614
aF0.636
aF0.598
aF0.688
aF0.572
aF0.664
aF0.57
aF0.658
aF0.592
aF0.636
aF0.594
aF0.626
aF0.656
aF0.616
aF0.636
aF0.624
aF0.608
aF0.632
aF0.618
aF0.622
aF0.636
aF0.614
aF0.646
aF0.626
aF0.616
aF0.646
aF0.588
aF0.634
aF0.626
aF0.632
aF0.638
aF0.638
aF0.586
aF0.602
aF0.66
aF0.588
aF0.692
aF0.568
aF0.686
aF0.612
aF0.66
aF0.594
aF0.622
aF0.634
aF0.626
aF0.642
aF0.628
aF0.616
aF0.654
aF0.628
aF0.62
aF0.626
aF0.64
aF0.6
aF0.648
aF0.594
aF0.654
aF0.594
aF0.64
aF0.616
aF0.624
aF0.618
aF0.598
aF0.626
aF0.626
aF0.62
aF0.608
aF0.602
aF0.644
aF0.618
aF0.61
aF0.642
aF0.618
aF0.592
aF0.634
aF0.628
aF0.636
aF0.62
aF0.604
aF0.634
aF0.61
aF0.622
aF0.63
aF0.648
aF0.598
aF0.616
aF0.628
aF0.624
aF0.654
aF0.604
aF0.618
aF0.656
aF0.63
aF0.642
aF0.57
aF0.66
aF0.6
aa(lp39
F0.632
aF0.648
aF0.598
aF0.672
aF0.602
aF0.622
aF0.604
aF0.64
aF0.618
aF0.62
aF0.642
aF0.646
aF0.586
aF0.634
aF0.598
aF0.638
aF0.636
aF0.606
aF0.606
aF0.654
aF0.614
aF0.622
aF0.604
aF0.622
aF0.632
aF0.614
aF0.632
aF0.602
aF0.638
aF0.582
aF0.642
aF0.63
aF0.592
aF0.65
aF0.582
aF0.684
aF0.584
aF0.656
aF0.61
aF0.642
aF0.574
aF0.634
aF0.61
aF0.622
aF0.624
aF0.626
aF0.616
aF0.64
aF0.636
aF0.62
aF0.606
aF0.65
aF0.616
aF0.598
aF0.676
aF0.596
aF0.646
aF0.63
aF0.624
aF0.602
aF0.662
aF0.598
aF0.664
aF0.618
aF0.624
aF0.646
aF0.622
aF0.622
aF0.634
aF0.632
aF0.602
aF0.644
aF0.616
aF0.61
aF0.646
aF0.61
aF0.63
aF0.604
aF0.632
aF0.598
aF0.636
aF0.614
aF0.624
aF0.594
aF0.616
aF0.63
aF0.634
aF0.626
aF0.668
aF0.594
aF0.628
aF0.644
aF0.614
aF0.628
aF0.64
aF0.616
aF0.64
aF0.636
aF0.584
aF0.652
aa(lp40
F0.628
aF0.614
aF0.622
aF0.654
aF0.608
aF0.628
aF0.612
aF0.618
aF0.652
aF0.596
aF0.656
aF0.614
aF0.638
aF0.616
aF0.652
aF0.596
aF0.632
aF0.626
aF0.634
aF0.602
aF0.658
aF0.6
aF0.642
aF0.606
aF0.638
aF0.624
aF0.616
aF0.612
aF0.654
aF0.614
aF0.606
aF0.634
aF0.622
aF0.638
aF0.624
aF0.664
aF0.624
aF0.608
aF0.646
aF0.622
aF0.636
aF0.622
aF0.61
aF0.636
aF0.62
aF0.608
aF0.62
aF0.632
aF0.608
aF0.63
aF0.598
aF0.604
aF0.614
aF0.634
aF0.65
aF0.592
aF0.664
aF0.582
aF0.648
aF0.634
aF0.662
aF0.596
aF0.62
aF0.632
aF0.588
aF0.666
aF0.608
aF0.624
aF0.618
aF0.626
aF0.6
aF0.644
aF0.624
aF0.634
aF0.634
aF0.604
aF0.64
aF0.61
aF0.644
aF0.634
aF0.584
aF0.65
aF0.578
aF0.624
aF0.626
aF0.598
aF0.614
aF0.624
aF0.61
aF0.628
aF0.606
aF0.63
aF0.62
aF0.632
aF0.582
aF0.642
aF0.648
aF0.622
aF0.622
aF0.618
aa(lp41
F0.596
aF0.626
aF0.62
aF0.638
aF0.6
aF0.634
aF0.634
aF0.618
aF0.636
aF0.652
aF0.602
aF0.642
aF0.636
aF0.622
aF0.654
aF0.604
aF0.654
aF0.616
aF0.614
aF0.65
aF0.622
aF0.634
aF0.634
aF0.638
aF0.584
aF0.62
aF0.642
aF0.62
aF0.63
aF0.626
aF0.612
aF0.626
aF0.616
aF0.6
aF0.638
aF0.626
aF0.626
aF0.596
aF0.632
aF0.612
aF0.644
aF0.56
aF0.676
aF0.586
aF0.696
aF0.59
aF0.636
aF0.634
aF0.62
aF0.6
aF0.65
aF0.6
aF0.672
aF0.61
aF0.644
aF0.606
aF0.606
aF0.652
aF0.612
aF0.63
aF0.634
aF0.596
aF0.626
aF0.64
aF0.602
aF0.634
aF0.586
aF0.656
aF0.624
aF0.62
aF0.63
aF0.614
aF0.67
aF0.6
aF0.68
aF0.59
aF0.656
aF0.602
aF0.67
aF0.584
aF0.662
aF0.612
aF0.646
aF0.596
aF0.648
aF0.584
aF0.662
aF0.606
aF0.628
aF0.622
aF0.642
aF0.608
aF0.606
aF0.644
aF0.614
aF0.648
aF0.606
aF0.62
aF0.636
aF0.626
aa(lp42
F0.634
aF0.638
aF0.63
aF0.614
aF0.628
aF0.636
aF0.608
aF0.664
aF0.604
aF0.656
aF0.616
aF0.608
aF0.614
aF0.64
aF0.622
aF0.62
aF0.634
aF0.614
aF0.638
aF0.634
aF0.622
aF0.63
aF0.634
aF0.612
aF0.612
aF0.662
aF0.64
aF0.622
aF0.648
aF0.606
aF0.632
aF0.612
aF0.616
aF0.618
aF0.616
aF0.642
aF0.614
aF0.646
aF0.636
aF0.606
aF0.634
aF0.628
aF0.606
aF0.614
aF0.614
aF0.612
aF0.63
aF0.64
aF0.616
aF0.596
aF0.63
aF0.6
aF0.618
aF0.614
aF0.628
aF0.6
aF0.674
aF0.574
aF0.652
aF0.602
aF0.634
aF0.646
aF0.59
aF0.636
aF0.648
aF0.624
aF0.634
aF0.636
aF0.618
aF0.626
aF0.654
aF0.616
aF0.608
aF0.63
aF0.634
aF0.622
aF0.648
aF0.588
aF0.628
aF0.614
aF0.65
aF0.608
aF0.616
aF0.64
aF0.608
aF0.636
aF0.616
aF0.62
aF0.628
aF0.606
aF0.622
aF0.634
aF0.602
aF0.68
aF0.594
aF0.664
aF0.596
aF0.642
aF0.636
aF0.61
aa(lp43
F0.594
aF0.638
aF0.62
aF0.61
aF0.622
aF0.648
aF0.576
aF0.62
aF0.64
aF0.636
aF0.612
aF0.636
aF0.614
aF0.628
aF0.632
aF0.618
aF0.61
aF0.616
aF0.636
aF0.618
aF0.626
aF0.616
aF0.634
aF0.622
aF0.64
aF0.598
aF0.644
aF0.656
aF0.604
aF0.638
aF0.65
aF0.622
aF0.618
aF0.646
aF0.62
aF0.624
aF0.622
aF0.614
aF0.62
aF0.66
aF0.59
aF0.684
aF0.61
aF0.63
aF0.61
aF0.64
aF0.634
aF0.626
aF0.63
aF0.65
aF0.632
aF0.622
aF0.63
aF0.61
aF0.642
aF0.62
aF0.628
aF0.662
aF0.598
aF0.624
aF0.636
aF0.648
aF0.594
aF0.69
aF0.596
aF0.614
aF0.664
aF0.566
aF0.632
aF0.604
aF0.612
aF0.618
aF0.618
aF0.646
aF0.61
aF0.656
aF0.608
aF0.652
aF0.582
aF0.644
aF0.626
aF0.608
aF0.614
aF0.648
aF0.59
aF0.626
aF0.624
aF0.602
aF0.634
aF0.63
aF0.626
aF0.616
aF0.588
aF0.654
aF0.606
aF0.634
aF0.598
aF0.638
aF0.644
aF0.624
aa(lp44
F0.618
aF0.654
aF0.61
aF0.63
aF0.614
aF0.636
aF0.622
aF0.616
aF0.624
aF0.6
aF0.624
aF0.64
aF0.6
aF0.622
aF0.612
aF0.632
aF0.586
aF0.678
aF0.558
aF0.652
aF0.634
aF0.624
aF0.622
aF0.61
aF0.664
aF0.604
aF0.602
aF0.646
aF0.606
aF0.644
aF0.628
aF0.596
aF0.63
aF0.608
aF0.66
aF0.586
aF0.63
aF0.616
aF0.644
aF0.618
aF0.622
aF0.604
aF0.638
aF0.616
aF0.644
aF0.626
aF0.61
aF0.624
aF0.616
aF0.628
aF0.628
aF0.606
aF0.648
aF0.638
aF0.576
aF0.7
aF0.548
aF0.66
aF0.6
aF0.632
aF0.614
aF0.636
aF0.61
aF0.622
aF0.636
aF0.606
aF0.642
aF0.616
aF0.616
aF0.644
aF0.62
aF0.622
aF0.616
aF0.634
aF0.624
aF0.618
aF0.64
aF0.632
aF0.616
aF0.606
aF0.626
aF0.622
aF0.62
aF0.6
aF0.65
aF0.618
aF0.638
aF0.62
aF0.634
aF0.61
aF0.636
aF0.596
aF0.642
aF0.632
aF0.606
aF0.638
aF0.57
aF0.642
aF0.608
aF0.654
aa(lp45
F0.628
aF0.652
aF0.574
aF0.66
aF0.622
aF0.64
aF0.616
aF0.64
aF0.552
aF0.696
aF0.612
aF0.65
aF0.636
aF0.586
aF0.662
aF0.59
aF0.61
aF0.6
aF0.634
aF0.626
aF0.62
aF0.638
aF0.626
aF0.666
aF0.594
aF0.654
aF0.59
aF0.666
aF0.614
aF0.614
aF0.62
aF0.644
aF0.63
aF0.602
aF0.616
aF0.66
aF0.62
aF0.646
aF0.654
aF0.606
aF0.612
aF0.62
aF0.628
aF0.616
aF0.624
aF0.628
aF0.638
aF0.63
aF0.614
aF0.61
aF0.644
aF0.608
aF0.632
aF0.608
aF0.634
aF0.626
aF0.612
aF0.656
aF0.628
aF0.594
aF0.626
aF0.614
aF0.598
aF0.646
aF0.632
aF0.652
aF0.59
aF0.624
aF0.584
aF0.674
aF0.588
aF0.642
aF0.62
aF0.626
aF0.636
aF0.628
aF0.634
aF0.624
aF0.62
aF0.658
aF0.62
aF0.626
aF0.618
aF0.614
aF0.604
aF0.66
aF0.62
aF0.646
aF0.598
aF0.644
aF0.594
aF0.638
aF0.652
aF0.596
aF0.66
aF0.636
aF0.63
aF0.61
aF0.636
aF0.622
aa(lp46
F0.636
aF0.618
aF0.622
aF0.64
aF0.604
aF0.616
aF0.62
aF0.608
aF0.658
aF0.614
aF0.62
aF0.656
aF0.572
aF0.648
aF0.57
aF0.668
aF0.618
aF0.616
aF0.614
aF0.628
aF0.622
aF0.608
aF0.668
aF0.578
aF0.662
aF0.616
aF0.644
aF0.604
aF0.632
aF0.612
aF0.628
aF0.63
aF0.614
aF0.628
aF0.632
aF0.606
aF0.63
aF0.66
aF0.588
aF0.638
aF0.644
aF0.626
aF0.628
aF0.658
aF0.622
aF0.61
aF0.604
aF0.598
aF0.646
aF0.616
aF0.624
aF0.678
aF0.59
aF0.616
aF0.642
aF0.624
aF0.578
aF0.662
aF0.6
aF0.658
aF0.586
aF0.66
aF0.592
aF0.662
aF0.608
aF0.66
aF0.608
aF0.61
aF0.624
aF0.606
aF0.652
aF0.618
aF0.63
aF0.626
aF0.622
aF0.622
aF0.638
aF0.624
aF0.584
aF0.64
aF0.604
aF0.656
aF0.646
aF0.628
aF0.624
aF0.62
aF0.622
aF0.628
aF0.634
aF0.614
aF0.63
aF0.628
aF0.61
aF0.646
aF0.616
aF0.632
aF0.644
aF0.634
aF0.642
aF0.594
aa(lp47
F0.648
aF0.62
aF0.606
aF0.66
aF0.6
aF0.662
aF0.574
aF0.646
aF0.646
aF0.62
aF0.64
aF0.628
aF0.624
aF0.632
aF0.624
aF0.61
aF0.634
aF0.632
aF0.632
aF0.622
aF0.608
aF0.642
aF0.608
aF0.642
aF0.61
aF0.588
aF0.662
aF0.586
aF0.646
aF0.604
aF0.674
aF0.606
aF0.638
aF0.596
aF0.616
aF0.648
aF0.602
aF0.638
aF0.608
aF0.644
aF0.622
aF0.656
aF0.622
aF0.648
aF0.62
aF0.634
aF0.654
aF0.6
aF0.62
aF0.626
aF0.61
aF0.628
aF0.64
aF0.63
aF0.592
aF0.646
aF0.596
aF0.608
aF0.642
aF0.608
aF0.626
aF0.626
aF0.618
aF0.592
aF0.64
aF0.624
aF0.614
aF0.626
aF0.63
aF0.648
aF0.648
aF0.598
aF0.626
aF0.616
aF0.644
aF0.592
aF0.642
aF0.62
aF0.68
aF0.58
aF0.648
aF0.594
aF0.664
aF0.622
aF0.586
aF0.668
aF0.584
aF0.666
aF0.586
aF0.632
aF0.622
aF0.614
aF0.646
aF0.638
aF0.61
aF0.652
aF0.644
aF0.65
aF0.598
aF0.644
aa(lp48
F0.654
aF0.594
aF0.65
aF0.614
aF0.632
aF0.616
aF0.614
aF0.62
aF0.624
aF0.648
aF0.648
aF0.634
aF0.598
aF0.652
aF0.57
aF0.66
aF0.614
aF0.674
aF0.598
aF0.624
aF0.604
aF0.606
aF0.644
aF0.62
aF0.616
aF0.608
aF0.628
aF0.624
aF0.618
aF0.624
aF0.65
aF0.608
aF0.63
aF0.6
aF0.626
aF0.602
aF0.654
aF0.618
aF0.63
aF0.62
aF0.61
aF0.608
aF0.656
aF0.636
aF0.636
aF0.584
aF0.628
aF0.614
aF0.592
aF0.634
aF0.594
aF0.672
aF0.576
aF0.658
aF0.618
aF0.616
aF0.644
aF0.606
aF0.632
aF0.624
aF0.634
aF0.624
aF0.652
aF0.584
aF0.638
aF0.648
aF0.618
aF0.62
aF0.646
aF0.614
aF0.634
aF0.6
aF0.648
aF0.59
aF0.666
aF0.594
aF0.626
aF0.654
aF0.642
aF0.632
aF0.648
aF0.608
aF0.624
aF0.618
aF0.652
aF0.64
aF0.638
aF0.596
aF0.658
aF0.606
aF0.676
aF0.6
aF0.668
aF0.588
aF0.624
aF0.656
aF0.612
aF0.63
aF0.632
aF0.626
aa(lp49
F0.636
aF0.632
aF0.61
aF0.632
aF0.608
aF0.65
aF0.628
aF0.62
aF0.618
aF0.64
aF0.58
aF0.652
aF0.62
aF0.616
aF0.632
aF0.614
aF0.642
aF0.602
aF0.618
aF0.62
aF0.642
aF0.618
aF0.592
aF0.67
aF0.624
aF0.62
aF0.606
aF0.634
aF0.626
aF0.622
aF0.648
aF0.598
aF0.678
aF0.6
aF0.632
aF0.598
aF0.622
aF0.622
aF0.6
aF0.658
aF0.596
aF0.642
aF0.596
aF0.628
aF0.642
aF0.612
aF0.652
aF0.648
aF0.59
aF0.632
aF0.624
aF0.614
aF0.596
aF0.652
aF0.572
aF0.656
aF0.614
aF0.638
aF0.63
aF0.67
aF0.598
aF0.628
aF0.61
aF0.63
aF0.624
aF0.63
aF0.614
aF0.64
aF0.622
aF0.618
aF0.616
aF0.618
aF0.634
aF0.63
aF0.624
aF0.644
aF0.62
aF0.626
aF0.628
aF0.636
aF0.608
aF0.634
aF0.61
aF0.642
aF0.628
aF0.648
aF0.608
aF0.62
aF0.642
aF0.612
aF0.646
aF0.602
aF0.614
aF0.616
aF0.632
aF0.62
aF0.632
aF0.632
aF0.638
aF0.578
aa(lp50
F0.65
aF0.644
aF0.63
aF0.642
aF0.632
aF0.624
aF0.62
aF0.634
aF0.656
aF0.584
aF0.656
aF0.632
aF0.616
aF0.64
aF0.612
aF0.652
aF0.58
aF0.626
aF0.618
aF0.612
aF0.61
aF0.642
aF0.64
aF0.62
aF0.662
aF0.578
aF0.642
aF0.6
aF0.658
aF0.606
aF0.656
aF0.598
aF0.644
aF0.608
aF0.628
aF0.618
aF0.664
aF0.606
aF0.642
aF0.604
aF0.61
aF0.6
aF0.632
aF0.66
aF0.64
aF0.62
aF0.642
aF0.608
aF0.656
aF0.628
aF0.626
aF0.61
aF0.592
aF0.67
aF0.62
aF0.614
aF0.646
aF0.614
aF0.622
aF0.622
aF0.62
aF0.614
aF0.638
aF0.598
aF0.646
aF0.614
aF0.63
aF0.614
aF0.612
aF0.628
aF0.654
aF0.602
aF0.62
aF0.616
aF0.642
aF0.606
aF0.636
aF0.64
aF0.618
aF0.612
aF0.634
aF0.596
aF0.63
aF0.59
aF0.64
aF0.604
aF0.656
aF0.638
aF0.596
aF0.614
aF0.646
aF0.632
aF0.614
aF0.634
aF0.622
aF0.604
aF0.628
aF0.622
aF0.63
aF0.602
aa(lp51
F0.672
aF0.614
aF0.638
aF0.642
aF0.624
aF0.626
aF0.62
aF0.624
aF0.62
aF0.626
aF0.62
aF0.616
aF0.624
aF0.65
aF0.63
aF0.618
aF0.644
aF0.602
aF0.64
aF0.636
aF0.648
aF0.628
aF0.63
aF0.644
aF0.616
aF0.598
aF0.634
aF0.614
aF0.624
aF0.638
aF0.624
aF0.614
aF0.648
aF0.598
aF0.636
aF0.61
aF0.624
aF0.624
aF0.632
aF0.622
aF0.622
aF0.642
aF0.622
aF0.628
aF0.632
aF0.644
aF0.646
aF0.628
aF0.638
aF0.636
aF0.6
aF0.622
aF0.644
aF0.626
aF0.652
aF0.626
aF0.644
aF0.614
aF0.618
aF0.644
aF0.624
aF0.622
aF0.634
aF0.64
aF0.612
aF0.612
aF0.628
aF0.628
aF0.644
aF0.624
aF0.648
aF0.586
aF0.616
aF0.632
aF0.606
aF0.638
aF0.61
aF0.658
aF0.624
aF0.612
aF0.634
aF0.6
aF0.656
aF0.612
aF0.61
aF0.638
aF0.602
aF0.62
aF0.6
aF0.638
aF0.626
aF0.6
aF0.652
aF0.606
aF0.6
aF0.64
aF0.618
aF0.604
aF0.638
aF0.612
aa.